target datalayout = "e-m:e-p270:32:32-p271:32:32-p272:64:64-i64:64-i128:128-f80:128-n8:16:32:64-S128"
target triple = "x86_64-pc-linux-gnu"

%struct.timeout_params = type { i32, i8, i8, ptr, i64, i64, i32 }

@all_timeouts = internal global [23 x %struct.timeout_params] zeroinitializer, align 16
@.str = private unnamed_addr constant [32 x i8] c"cannot add more timeout reasons\00", align 1
@.str.1 = private unnamed_addr constant [10 x i8] c"timeout.c\00", align 1
@__func__.RegisterTimeout = private unnamed_addr constant [16 x i8] c"RegisterTimeout\00", align 1

; Function Attrs: nounwind uwtable
define dso_local i32 @RegisterTimeout(i32 noundef %0, ptr noundef %1) #0 {
  %3 = alloca i32, align 4
  %4 = alloca ptr, align 8
  store i32 %0, ptr %3, align 4
  store ptr %1, ptr %4, align 8
  %5 = load i32, ptr %3, align 4
  %6 = icmp uge i32 %5, 13
  br i1 %6, label %7, label %38

7:                                                ; preds = %2
  store i32 13, ptr %3, align 4
  br label %8

8:                                                ; preds = %20, %7
  %9 = load i32, ptr %3, align 4
  %10 = icmp ult i32 %9, 23
  br i1 %10, label %11, label %23

11:                                               ; preds = %8
  %12 = load i32, ptr %3, align 4
  %13 = zext i32 %12 to i64
  %14 = getelementptr inbounds nuw [23 x %struct.timeout_params], ptr @all_timeouts, i64 0, i64 %13
  %15 = getelementptr inbounds nuw %struct.timeout_params, ptr %14, i32 0, i32 3
  %16 = load ptr, ptr %15, align 8
  %17 = icmp eq ptr %16, null
  br i1 %17, label %18, label %19

18:                                               ; preds = %11
  br label %23

19:                                               ; preds = %11
  br label %20

20:                                               ; preds = %19
  %21 = load i32, ptr %3, align 4
  %22 = add i32 %21, 1
  store i32 %22, ptr %3, align 4
  br label %8, !llvm.loop !7

23:                                               ; preds = %18, %8
  %24 = load i32, ptr %3, align 4
  %25 = icmp uge i32 %24, 23
  br i1 %25, label %26, label %37

26:                                               ; preds = %23
  br label %27

27:                                               ; preds = %26
  br i1 true, label %28, label %30

28:                                               ; preds = %27
  %29 = call zeroext i1 @errstart_cold(i32 noundef 22, ptr noundef null) #7
  br i1 %29, label %32, label %35

30:                                               ; preds = %27
  %31 = call zeroext i1 @errstart(i32 noundef 22, ptr noundef null)
  br i1 %31, label %32, label %35

32:                                               ; preds = %30, %28
  %33 = call i32 @errcode(i32 noundef 16581)
  %34 = call i32 (ptr, ...) @errmsg(ptr noundef @.str)
  call void @errfinish(ptr noundef @.str.1, i32 noundef 520, ptr noundef @__func__.RegisterTimeout)
  br label %35

35:                                               ; preds = %32, %30, %28
  unreachable

36:                                               ; No predecessors!
  br label %37

37:                                               ; preds = %36, %23
  br label %38

38:                                               ; preds = %37, %2
  %39 = load ptr, ptr %4, align 8
  %40 = load i32, ptr %3, align 4
  %41 = zext i32 %40 to i64
  %42 = getelementptr inbounds nuw [23 x %struct.timeout_params], ptr @all_timeouts, i64 0, i64 %41
  %43 = getelementptr inbounds nuw %struct.timeout_params, ptr %42, i32 0, i32 3
  store ptr %39, ptr %43, align 8
  %44 = load i32, ptr %3, align 4
  ret i32 %44
}