; Function Attrs: nounwind uwtable
define dso_local range(i32 0, 23) i32 @RegisterTimeout(i32 noundef %0, ptr noundef %1) local_unnamed_addr #0 {
  %3 = icmp ugt i32 %0, 12
  br i1 %3, label %.preheader, label %.loopexit

.preheader:                                       ; preds = %2, %7
  %indvars.iv = phi i64 [ %indvars.iv.next, %7 ], [ 13, %2 ]
  %4 = getelementptr inbounds nuw [23 x %struct.timeout_params], ptr @all_timeouts, i64 0, i64 %indvars.iv, i32 3
  %5 = load ptr, ptr %4, align 8
  %6 = icmp eq ptr %5, null
  br i1 %6, label %.loopexit.loopexit, label %7

7:                                                ; preds = %.preheader
  %indvars.iv.next = add nuw nsw i64 %indvars.iv, 1
  %exitcond.not = icmp eq i64 %indvars.iv.next, 23
  br i1 %exitcond.not, label %8, label %.preheader, !llvm.loop !8

8:                                                ; preds = %7
  %9 = tail call zeroext i1 @errstart_cold(i32 noundef 22, ptr noundef null) #11
  tail call void @llvm.assume(i1 %9)
  %10 = tail call i32 @errcode(i32 noundef 16581) #10
  %11 = tail call i32 (ptr, ...) @errmsg(ptr noundef nonnull @.str) #10
  tail call void @errfinish(ptr noundef nonnull @.str.1, i32 noundef 520, ptr noundef nonnull @__func__.RegisterTimeout) #10
  unreachable

.loopexit.loopexit:                               ; preds = %.preheader
  %12 = trunc nuw nsw i64 %indvars.iv to i32
  br label %.loopexit

.loopexit:                                        ; preds = %.loopexit.loopexit, %2
  %.0 = phi i32 [ %0, %2 ], [ %12, %.loopexit.loopexit ]
  %13 = zext nneg i32 %.0 to i64
  %14 = getelementptr inbounds nuw [23 x %struct.timeout_params], ptr @all_timeouts, i64 0, i64 %13, i32 3
  store ptr %1, ptr %14, align 8
  ret i32 %.0
}